target datalayout = "e-m:e-p270:32:32-p271:32:32-p272:64:64-i64:64-i128:128-f80:128-n8:16:32:64-S128"
target triple = "x86_64-pc-linux-gnu"

%struct.expert_field = type { i32, i32 }

@hf_ansi_801_use_action_time_indicator = internal global i32 0, align 4
@hf_ansi_801_action_time = internal global i32 0, align 4
@hf_ansi_801_reserved8_7F = internal global i32 0, align 4
@hf_ansi_801_reserved8_01 = internal global i32 0, align 4
@ei_ansi_801_extraneous_data = internal global %struct.expert_field zeroinitializer, align 4
@ei_ansi_801_short_data = internal global %struct.expert_field zeroinitializer, align 4

; Function Attrs: null_pointer_is_valid sspstrong uwtable
define internal void @for_req_time_off_meas(ptr noundef %0, ptr noundef %1, ptr noundef %2, i32 noundef %3, i32 noundef %4) #0 {
  %6 = alloca ptr, align 8
  %7 = alloca ptr, align 8
  %8 = alloca ptr, align 8
  %9 = alloca i32, align 4
  %10 = alloca i32, align 4
  %11 = alloca i8, align 1
  %12 = alloca i32, align 4
  %13 = alloca i32, align 4
  store ptr %0, ptr %6, align 8
  store ptr %1, ptr %7, align 8
  store ptr %2, ptr %8, align 8
  store i32 %3, ptr %9, align 4
  store i32 %4, ptr %10, align 4
  call void @llvm.lifetime.start.p0(i64 1, ptr %11) #6
  call void @llvm.lifetime.start.p0(i64 4, ptr %12) #6
  %14 = load i32, ptr %9, align 4
  %15 = icmp ult i32 %14, 1
  br i1 %15, label %16, label %23

16:                                               ; preds = %5
  %17 = load ptr, ptr %8, align 8
  %18 = load ptr, ptr %7, align 8
  %19 = load ptr, ptr %6, align 8
  %20 = load i32, ptr %10, align 4
  %21 = load i32, ptr %9, align 4
  %22 = call ptr @proto_tree_add_expert(ptr noundef %17, ptr noundef %18, ptr noundef @ei_ansi_801_short_data, ptr noundef %19, i32 noundef %20, i32 noundef %21)
  store i32 1, ptr %13, align 4
  br label %74

23:                                               ; preds = %5
  %24 = load i32, ptr %10, align 4
  store i32 %24, ptr %12, align 4
  %25 = load ptr, ptr %6, align 8
  %26 = load i32, ptr %10, align 4
  %27 = call zeroext i8 @tvb_get_uint8(ptr noundef %25, i32 noundef %26)
  store i8 %27, ptr %11, align 1
  %28 = load ptr, ptr %8, align 8
  %29 = load i32, ptr @hf_ansi_801_use_action_time_indicator, align 4
  %30 = load ptr, ptr %6, align 8
  %31 = load i32, ptr %10, align 4
  %32 = call ptr @proto_tree_add_item(ptr noundef %28, i32 noundef %29, ptr noundef %30, i32 noundef %31, i32 noundef 1, i32 noundef 0)
  %33 = load i8, ptr %11, align 1
  %34 = zext i8 %33 to i32
  %35 = and i32 %34, 128
  %36 = icmp ne i32 %35, 0
  br i1 %36, label %37, label %48

37:                                               ; preds = %23
  %38 = load ptr, ptr %8, align 8
  %39 = load i32, ptr @hf_ansi_801_action_time, align 4
  %40 = load ptr, ptr %6, align 8
  %41 = load i32, ptr %10, align 4
  %42 = call ptr @proto_tree_add_item(ptr noundef %38, i32 noundef %39, ptr noundef %40, i32 noundef %41, i32 noundef 1, i32 noundef 0)
  %43 = load ptr, ptr %8, align 8
  %44 = load i32, ptr @hf_ansi_801_reserved8_01, align 4
  %45 = load ptr, ptr %6, align 8
  %46 = load i32, ptr %10, align 4
  %47 = call ptr @proto_tree_add_item(ptr noundef %43, i32 noundef %44, ptr noundef %45, i32 noundef %46, i32 noundef 1, i32 noundef 0)
  br label %54

48:                                               ; preds = %23
  %49 = load ptr, ptr %8, align 8
  %50 = load i32, ptr @hf_ansi_801_reserved8_7F, align 4
  %51 = load ptr, ptr %6, align 8
  %52 = load i32, ptr %10, align 4
  %53 = call ptr @proto_tree_add_item(ptr noundef %49, i32 noundef %50, ptr noundef %51, i32 noundef %52, i32 noundef 1, i32 noundef 0)
  br label %54

54:                                               ; preds = %48, %37
  %55 = load i32, ptr %10, align 4
  %56 = add i32 %55, 1
  store i32 %56, ptr %10, align 4
  %57 = load i32, ptr %9, align 4
  %58 = load i32, ptr %10, align 4
  %59 = load i32, ptr %12, align 4
  %60 = sub i32 %58, %59
  %61 = icmp ugt i32 %57, %60
  br i1 %61, label %62, label %73

62:                                               ; preds = %54
  %63 = load ptr, ptr %8, align 8
  %64 = load ptr, ptr %7, align 8
  %65 = load ptr, ptr %6, align 8
  %66 = load i32, ptr %10, align 4
  %67 = load i32, ptr %9, align 4
  %68 = load i32, ptr %10, align 4
  %69 = load i32, ptr %12, align 4
  %70 = sub i32 %68, %69
  %71 = sub i32 %67, %70
  %72 = call ptr @proto_tree_add_expert(ptr noundef %63, ptr noundef %64, ptr noundef @ei_ansi_801_extraneous_data, ptr noundef %65, i32 noundef %66, i32 noundef %71)
  br label %73

73:                                               ; preds = %62, %54
  store i32 0, ptr %13, align 4
  br label %74

74:                                               ; preds = %73, %16
  call void @llvm.lifetime.end.p0(i64 4, ptr %12) #6
  call void @llvm.lifetime.end.p0(i64 1, ptr %11) #6
  %75 = load i32, ptr %13, align 4
  switch i32 %75, label %77 [
    i32 0, label %76
    i32 1, label %76
  ]

76:                                               ; preds = %74, %74
  ret void

77:                                               ; preds = %74
  unreachable
}