; Function Attrs: null_pointer_is_valid sspstrong uwtable
define internal void @for_req_time_off_meas(ptr noundef %0, ptr noundef %1, ptr noundef %2, i32 noundef %3, i32 noundef %4) #0 {
  %6 = icmp eq i32 %3, 0
  br i1 %6, label %7, label %9

7:                                                ; preds = %5
  %8 = tail call ptr @proto_tree_add_expert(ptr noundef %2, ptr noundef %1, ptr noundef nonnull @ei_ansi_801_short_data, ptr noundef %0, i32 noundef %4, i32 noundef 0)
  br label %23

9:                                                ; preds = %5
  %10 = tail call zeroext i8 @tvb_get_uint8(ptr noundef %0, i32 noundef %4)
  %11 = load i32, ptr @hf_ansi_801_use_action_time_indicator, align 4
  %12 = tail call ptr @proto_tree_add_item(ptr noundef %2, i32 noundef %11, ptr noundef %0, i32 noundef %4, i32 noundef 1, i32 noundef 0)
  %.not = icmp sgt i8 %10, -1
  br i1 %.not, label %16, label %13

13:                                               ; preds = %9
  %14 = load i32, ptr @hf_ansi_801_action_time, align 4
  %15 = tail call ptr @proto_tree_add_item(ptr noundef %2, i32 noundef %14, ptr noundef %0, i32 noundef %4, i32 noundef 1, i32 noundef 0)
  br label %16

16:                                               ; preds = %9, %13
  %hf_ansi_801_reserved8_7F.sink = phi ptr [ @hf_ansi_801_reserved8_01, %13 ], [ @hf_ansi_801_reserved8_7F, %9 ]
  %17 = load i32, ptr %hf_ansi_801_reserved8_7F.sink, align 4
  %18 = tail call ptr @proto_tree_add_item(ptr noundef %2, i32 noundef %17, ptr noundef %0, i32 noundef %4, i32 noundef 1, i32 noundef 0)
  %.not32 = icmp eq i32 %3, 1
  br i1 %.not32, label %23, label %19

19:                                               ; preds = %16
  %20 = add i32 %4, 1
  %21 = add i32 %3, -1
  %22 = tail call ptr @proto_tree_add_expert(ptr noundef %2, ptr noundef %1, ptr noundef nonnull @ei_ansi_801_extraneous_data, ptr noundef %0, i32 noundef %20, i32 noundef %21)
  br label %23

23:                                               ; preds = %16, %19, %7
  ret void
}